c__builtin__
set
p0
((lp1
(I20
I25
tp2
a(I21
I28
tp3
a(I28
I41
tp4
a(I17
I20
tp5
a(I22
I19
tp6
a(I29
I44
tp7
a(I18
I19
tp8
a(I23
I26
tp9
a(I8
I5
tp10
a(I10
I7
tp11
a(I12
I17
tp12
a(I13
I20
tp13
a(I37
I23
tp14
a(I30
I41
tp15
a(I3
I2
tp16
a(I30
I35
tp17
a(I4
I5
tp18
a(I20
I32
tp19
a(I27
I39
tp20
a(I40
I29
tp21
a(I19
I13
tp22
a(I17
I13
tp23
a(I20
I14
tp24
a(I23
I19
tp25
a(I21
I15
tp26
a(I43
I30
tp27
a(I8
I12
tp28
a(I32
I25
tp29
a(I9
I9
tp30
a(I45
I28
tp31
a(I10
I14
tp32
a(I11
I15
tp33
a(I35
I26
tp34
a(I24
I21
tp35
a(I12
I8
tp36
a(I36
I29
tp37
a(I25
I16
tp38
a(I15
I13
tp39
a(I13
I13
tp40
a(I26
I23
tp41
a(I39
I30
tp42
a(I24
I33
tp43
a(I19
I18
tp44
a(I46
I30
tp45
a(I20
I21
tp46
a(I17
I24
tp47
a(I33
I29
tp48
a(I10
I9
tp49
a(I34
I26
tp50
a(I14
I19
tp51
a(I15
I10
tp52
a(I37
I25
tp53
a(I16
I23
tp54
a(I25
I37
tp55
a(I19
I27
tp56
a(I26
I34
tp57
a(I20
I28
tp58
a(I27
I43
tp59
a(I16
I20
tp60
a(I21
I17
tp61
a(I28
I44
tp62
a(I32
I23
tp63
a(I18
I22
tp64
a(I33
I22
tp65
a(I15
I19
tp66
a(I27
I20
tp67
a(I20
I27
tp68
a(I27
I32
tp69
a(I16
I11
tp70
a(I21
I26
tp71
a(I28
I43
tp72
a(I22
I17
tp73
a(I29
I42
tp74
a(I18
I17
tp75
a(I23
I20
tp76
a(I43
I27
tp77
a(I8
I7
tp78
a(I44
I28
tp79
a(I9
I6
tp80
a(I15
I24
tp81
a(I28
I34
tp82
a(I11
I8
tp83
a(I35
I23
tp84
a(I24
I16
tp85
a(I13
I18
tp86
a(I16
I21
tp87
a(I38
I26
tp88
a(I3
I4
tp89
a(I30
I37
tp90
a(I5
I6
tp91
a(I19
I15
tp92
a(I41
I30
tp93
a(I29
I35
tp94
a(I42
I29
tp95
a(I16
I24
tp96
a(I21
I13
tp97
a(I32
I27
tp98
a(I33
I26
tp99
a(I10
I12
tp100
a(I35
I28
tp101
a(I24
I23
tp102
a(I14
I14
tp103
a(I12
I10
tp104
a(I30
I34
tp105
a(I25
I22
tp106
a(I15
I15
tp107
a(I13
I11
tp108
a(I37
I30
tp109
a(I26
I21
tp110
a(I38
I29
tp111
a(I24
I35
tp112
a(I25
I34
tp113
a(I19
I20
tp114
a(I7
I9
tp115
a(I22
I35
tp116
a(I20
I23
tp117
a(I21
I22
tp118
a(I18
I29
tp119
a(I34
I24
tp120
a(I15
I20
tp121
a(I28
I32
tp122
a(I27
I17
tp123
a(I5
I8
tp124
a(I6
I7
tp125
a(I19
I29
tp126
a(I26
I32
tp127
a(I7
I6
tp128
a(I29
I37
tp129
a(I16
I22
tp130
a(I30
I42
tp131
a(I17
I23
tp132
a(I18
I20
tp133
a(I23
I25
tp134
a(I27
I22
tp135
a(I48
I30
tp136
a(I29
I20
tp137
a(I30
I39
tp138
a(I27
I34
tp139
a(I16
I13
tp140
a(I40
I26
tp141
a(I21
I24
tp142
a(I28
I37
tp143
a(I41
I27
tp144
a(I22
I23
tp145
a(I29
I40
tp146
a(I18
I15
tp147
a(I23
I22
tp148
a(I43
I29
tp149
a(I8
I9
tp150
a(I44
I30
tp151
a(I11
I10
tp152
a(I35
I25
tp153
a(I24
I18
tp154
a(I12
I13
tp155
a(I25
I19
tp156
a(I13
I16
tp157
a(I38
I24
tp158
a(I39
I29
tp159
a(I5
I4
tp160
a(I21
I33
tp161
a(I19
I17
tp162
a(I30
I33
tp163
a(I41
I28
tp164
a(I29
I33
tp165
a(I42
I27
tp166
a(I17
I27
tp167
a(I32
I29
tp168
a(I9
I13
tp169
a(I33
I24
tp170
a(I10
I10
tp171
a(I35
I30
tp172
a(I24
I25
tp173
a(I14
I12
tp174
a(I36
I25
tp175
a(I25
I20
tp176
a(I13
I9
tp177
a(I37
I28
tp178
a(I26
I19
tp179
a(I39
I26
tp180
a(I24
I37
tp181
a(I25
I32
tp182
a(I19
I22
tp183
a(I26
I39
tp184
a(I7
I11
tp185
a(I22
I33
tp186
a(I20
I17
tp187
a(I23
I36
tp188
a(I21
I20
tp189
a(I32
I20
tp190
a(I22
I27
tp191
a(I18
I27
tp192
a(I34
I22
tp193
a(I15
I22
tp194
a(I30
I44
tp195
a(I27
I19
tp196
a(I28
I20
tp197
a(I2
I3
tp198
a(I6
I5
tp199
a(I20
I24
tp200
a(I30
I40
tp201
a(I28
I40
tp202
a(I17
I21
tp203
a(I22
I18
tp204
a(I29
I45
tp205
a(I18
I18
tp206
a(I12
I16
tp207
a(I13
I21
tp208
a(I28
I19
tp209
a(I29
I18
tp210
a(I3
I3
tp211
a(I29
I36
tp212
a(I4
I4
tp213
a(I26
I41
tp214
a(I27
I36
tp215
a(I30
I38
tp216
a(I40
I28
tp217
a(I30
I19
tp218
a(I28
I39
tp219
a(I22
I21
tp220
a(I20
I13
tp221
a(I18
I13
tp222
a(I42
I30
tp223
a(I23
I16
tp224
a(I8
I11
tp225
a(I32
I24
tp226
a(I22
I15
tp227
a(I9
I10
tp228
a(I45
I29
tp229
a(I30
I46
tp230
a(I11
I12
tp231
a(I35
I27
tp232
a(I24
I20
tp233
a(I14
I11
tp234
a(I12
I15
tp235
a(I36
I28
tp236
a(I25
I17
tp237
a(I13
I14
tp238
a(I26
I22
tp239
a(I38
I30
tp240
a(I4
I3
tp241
a(I24
I32
tp242
a(I6
I9
tp243
a(I19
I19
tp244
a(I20
I20
tp245
a(I17
I25
tp246
a(I33
I30
tp247
a(I10
I8
tp248
a(I34
I29
tp249
a(I14
I18
tp250
a(I36
I27
tp251
a(I15
I11
tp252
a(I37
I26
tp253
a(I26
I17
tp254
a(I1
I1
tp255
a(I25
I38
tp256
a(I19
I24
tp257
a(I26
I37
tp258
a(I7
I5
tp259
a(I20
I19
tp260
a(I27
I40
tp261
a(I16
I19
tp262
a(I21
I18
tp263
a(I17
I18
tp264
a(I32
I22
tp265
a(I22
I25
tp266
a(I18
I25
tp267
a(I33
I23
tp268
a(I30
I36
tp269
a(I14
I21
tp270
a(I11
I16
tp271
a(I27
I21
tp272
a(I20
I26
tp273
a(I27
I33
tp274
a(I16
I10
tp275
a(I21
I27
tp276
a(I28
I42
tp277
a(I17
I11
tp278
a(I22
I16
tp279
a(I29
I43
tp280
a(I18
I16
tp281
a(I23
I21
tp282
a(I30
I48
tp283
a(I8
I6
tp284
a(I9
I7
tp285
a(I11
I9
tp286
a(I24
I15
tp287
a(I12
I18
tp288
a(I36
I23
tp289
a(I13
I19
tp290
a(I4
I6
tp291
a(I5
I7
tp292
a(I27
I38
tp293
a(I40
I30
tp294
a(I28
I33
tp295
a(I17
I12
tp296
a(I20
I15
tp297
a(I42
I28
tp298
a(I23
I18
tp299
a(I21
I14
tp300
a(I32
I26
tp301
a(I9
I8
tp302
a(I33
I27
tp303
a(I10
I15
tp304
a(I28
I35
tp305
a(I11
I14
tp306
a(I35
I29
tp307
a(I24
I22
tp308
a(I14
I9
tp309
a(I12
I9
tp310
a(I36
I30
tp311
a(I25
I23
tp312
a(I15
I12
tp313
a(I13
I12
tp314
a(I26
I20
tp315
a(I23
I35
tp316
a(I38
I28
tp317
a(I39
I25
tp318
a(I24
I34
tp319
a(I25
I35
tp320
a(I19
I21
tp321
a(I22
I34
tp322
a(I20
I22
tp323
a(I47
I30
tp324
a(I21
I23
tp325
a(I18
I28
tp326
a(I33
I28
tp327
a(I34
I27
tp328
a(I11
I7
tp329
a(I14
I16
tp330
a(I10
I16
tp331
a(I25
I24
tp332
a(I15
I21
tp333
a(I37
I24
tp334
a(I25
I36
tp335
a(I6
I6
tp336
a(I19
I26
tp337
a(I26
I35
tp338
a(I7
I7
tp339
a(I20
I29
tp340
a(I27
I42
tp341
a(I23
I32
tp342
a(I21
I16
tp343
a(I28
I45
tp344
a(I18
I23
tp345
a(I33
I21
tp346
a(I15
I18
tp347
a(I23
I33
tp348
a(I26
I42
tp349
a(I27
I35
tp350
a(I16
I12
tp351
a(I40
I25
tp352
a(I21
I25
tp353
a(I28
I36
tp354
a(I22
I22
tp355
a(I29
I41
tp356
a(I18
I14
tp357
a(I23
I23
tp358
a(I8
I8
tp359
a(I44
I29
tp360
a(I11
I11
tp361
a(I35
I22
tp362
a(I24
I17
tp363
a(I12
I12
tp364
a(I13
I17
tp365
a(I38
I27
tp366
a(I5
I5
tp367
a(I19
I14
tp368
a(I41
I29
tp369
a(I29
I34
tp370
a(I42
I26
tp371
a(I16
I25
tp372
a(I32
I28
tp373
a(I9
I14
tp374
a(I33
I25
tp375
a(I10
I13
tp376
a(I34
I30
tp377
a(I24
I24
tp378
a(I14
I15
tp379
a(I12
I11
tp380
a(I36
I24
tp381
a(I25
I21
tp382
a(I15
I14
tp383
a(I13
I10
tp384
a(I37
I29
tp385
a(I26
I18
tp386
a(I39
I27
tp387
a(I24
I36
tp388
a(I25
I33
tp389
a(I19
I23
tp390
a(I26
I38
tp391
a(I7
I8
tp392
a(I22
I32
tp393
a(I46
I29
tp394
a(I20
I16
tp395
a(I29
I38
tp396
a(I23
I37
tp397
a(I21
I21
tp398
a(I22
I26
tp399
a(I18
I26
tp400
a(I34
I25
tp401
a(I14
I22
tp402
a(I15
I23
tp403
a(I2
I2
tp404
a(I6
I4
tp405
a(I19
I28
tp406
a(I26
I33
tp407
a(I23
I34
tp408
a(I30
I43
tp409
a(I17
I22
tp410
a(I29
I46
tp411
a(I18
I21
tp412
a(I23
I24
tp413
a(I30
I45
tp414
a(I28
I18
tp415
a(I29
I19
tp416
a(I26
I40
tp417
a(I27
I37
tp418
a(I16
I14
tp419
a(I40
I27
tp420
a(I28
I38
tp421
a(I30
I32
tp422
a(I41
I26
tp423
a(I22
I20
tp424
a(I29
I39
tp425
a(I18
I12
tp426
a(I23
I17
tp427
a(I43
I28
tp428
a(I8
I10
tp429
a(I22
I14
tp430
a(I9
I11
tp431
a(I23
I15
tp432
a(I45
I30
tp433
a(I11
I13
tp434
a(I35
I24
tp435
a(I24
I19
tp436
a(I14
I10
tp437
a(I12
I14
tp438
a(I25
I18
tp439
a(I13
I15
tp440
a(I38
I25
tp441
a(I39
I28
tp442
a(I6
I8
tp443
a(I21
I32
tp444
a(I19
I16
tp445
a(I29
I32
tp446
a(I17
I26
tp447
a(I32
I30
tp448
a(I9
I12
tp449
a(I10
I11
tp450
a(I34
I28
tp451
a(I14
I13
tp452
a(I36
I26
tp453
a(I37
I27
tp454
a(I30
I47
tp455
a(I24
I38
tp456
a(I25
I39
tp457
a(I19
I25
tp458
a(I26
I36
tp459
a(I7
I10
tp460
a(I20
I18
tp461
a(I27
I41
tp462
a(I16
I18
tp463
a(I21
I19
tp464
a(I17
I19
tp465
a(I32
I21
tp466
a(I22
I24
tp467
a(I18
I24
tp468
a(I34
I23
tp469
a(I14
I20
tp470
a(I11
I17
tp471
a(I27
I18
tp472
a(I28
I21
tp473
a(I25
I40
tp474
a(I19
I30
tp475
atp476
Rp477
.