c__builtin__
set
p0
((lp1
(I26
I47
tp2
a(I7
I3
tp3
a(I27
I46
tp4
a(I16
I9
tp5
a(I40
I22
tp6
a(I19
I4
tp7
a(I41
I23
tp8
a(I20
I7
tp9
a(I42
I20
tp10
a(I21
I6
tp11
a(I43
I25
tp12
a(I18
I45
tp13
a(I15
I30
tp14
a(I11
I22
tp15
a(I35
I21
tp16
a(I24
I14
tp17
a(I14
I1
tp18
a(I16
I29
tp19
a(I36
I22
tp20
a(I25
I15
tp21
a(I15
I4
tp22
a(I26
I12
tp23
a(I29
I17
tp24
a(I25
I49
tp25
a(I49
I28
tp26
a(I30
I14
tp27
a(I19
I39
tp28
a(I22
I48
tp29
a(I29
I11
tp30
a(I21
I37
tp31
a(I41
I24
tp32
a(I22
I42
tp33
a(I46
I23
tp34
a(I18
I10
tp35
a(I47
I22
tp36
a(I22
I12
tp37
a(I44
I25
tp38
a(I18
I36
tp39
a(I23
I9
tp40
a(I8
I18
tp41
a(I9
I19
tp42
a(I14
I8
tp43
a(I1
I21
tp44
a(I2
I18
tp45
a(I3
I11
tp46
a(I27
I6
tp47
a(I1
I15
tp48
a(I49
I21
tp49
a(I4
I12
tp50
a(I19
I44
tp51
a(I2
I12
tp52
a(I26
I49
tp53
a(I5
I1
tp54
a(I20
I47
tp55
a(I3
I17
tp56
a(I16
I7
tp57
a(I6
I14
tp58
a(I21
I46
tp59
a(I17
I6
tp60
a(I7
I15
tp61
a(I31
I18
tp62
a(I25
I13
tp63
a(I18
I5
tp64
a(I23
I49
tp65
a(I23
I40
tp66
a(I43
I23
tp67
a(I18
I31
tp68
a(I45
I21
tp69
a(I8
I25
tp70
a(I11
I4
tp71
a(I9
I20
tp72
a(I12
I7
tp73
a(I10
I19
tp74
a(I13
I6
tp75
a(I11
I26
tp76
a(I38
I22
tp77
a(I12
I29
tp78
a(I6
I30
tp79
a(I39
I23
tp80
a(I4
I11
tp81
a(I2
I7
tp82
a(I24
I40
tp83
a(I5
I10
tp84
a(I3
I22
tp85
a(I6
I1
tp86
a(I30
I2
tp87
a(I4
I17
tp88
a(I28
I47
tp89
a(I7
I4
tp90
a(I22
I36
tp91
a(I5
I20
tp92
a(I6
I27
tp93
a(I19
I1
tp94
a(I16
I26
tp95
a(I34
I21
tp96
a(I18
I48
tp97
a(I14
I26
tp98
a(I10
I26
tp99
a(I11
I19
tp100
a(I24
I9
tp101
a(I12
I20
tp102
a(I13
I25
tp103
a(I2
I30
tp104
a(I24
I47
tp105
a(I48
I28
tp106
a(I27
I10
tp107
a(I25
I46
tp108
a(I49
I25
tp109
a(I21
I48
tp110
a(I29
I9
tp111
a(I19
I32
tp112
a(I26
I45
tp113
a(I5
I29
tp114
a(I29
I48
tp115
a(I6
I18
tp116
a(I19
I6
tp117
a(I17
I10
tp118
a(I41
I21
tp119
a(I46
I18
tp120
a(I20
I1
tp121
a(I42
I18
tp122
a(I21
I4
tp123
a(I6
I28
tp124
a(I22
I11
tp125
a(I18
I43
tp126
a(I14
I29
tp127
a(I10
I5
tp128
a(I14
I7
tp129
a(I1
I18
tp130
a(I9
I2
tp131
a(I15
I6
tp132
a(I37
I21
tp133
a(I26
I10
tp134
a(I48
I19
tp135
a(I49
I18
tp136
a(I30
I12
tp137
a(I4
I7
tp138
a(I19
I41
tp139
a(I20
I34
tp140
a(I16
I2
tp141
a(I6
I21
tp142
a(I21
I35
tp143
a(I29
I10
tp144
a(I17
I3
tp145
a(I7
I16
tp146
a(I22
I40
tp147
a(I46
I21
tp148
a(I20
I8
tp149
a(I18
I8
tp150
a(I23
I45
tp151
a(I8
I14
tp152
a(I22
I2
tp153
a(I44
I27
tp154
a(I18
I34
tp155
a(I16
I28
tp156
a(I23
I11
tp157
a(I45
I26
tp158
a(I8
I20
tp159
a(I11
I1
tp160
a(I9
I17
tp161
a(I28
I10
tp162
a(I10
I22
tp163
a(I2
I16
tp164
a(I29
I5
tp165
a(I3
I13
tp166
a(I1
I13
tp167
a(I39
I24
tp168
a(I4
I14
tp169
a(I19
I46
tp170
a(I2
I10
tp171
a(I5
I15
tp172
a(I20
I41
tp173
a(I3
I19
tp174
a(I6
I12
tp175
a(I21
I44
tp176
a(I4
I20
tp177
a(I17
I4
tp178
a(I46
I28
tp179
a(I18
I3
tp180
a(I23
I42
tp181
a(I47
I25
tp182
a(I9
I15
tp183
a(I17
I30
tp184
a(I32
I18
tp185
a(I22
I5
tp186
a(I44
I18
tp187
a(I33
I19
tp188
a(I45
I19
tp189
a(I8
I27
tp190
a(I11
I6
tp191
a(I30
I16
tp192
a(I9
I26
tp193
a(I12
I1
tp194
a(I10
I17
tp195
a(I13
I4
tp196
a(I11
I28
tp197
a(I38
I20
tp198
a(I1
I6
tp199
a(I9
I28
tp200
a(I13
I30
tp201
a(I2
I5
tp202
a(I26
I6
tp203
a(I24
I42
tp204
a(I20
I48
tp205
a(I25
I43
tp206
a(I4
I19
tp207
a(I28
I48
tp208
a(I5
I18
tp209
a(I27
I45
tp210
a(I40
I19
tp211
a(I19
I3
tp212
a(I41
I18
tp213
a(I20
I4
tp214
a(I33
I20
tp215
a(I28
I4
tp216
a(I34
I19
tp217
a(I8
I2
tp218
a(I9
I3
tp219
a(I14
I24
tp220
a(I10
I24
tp221
a(I15
I29
tp222
a(I11
I21
tp223
a(I24
I11
tp224
a(I28
I8
tp225
a(I12
I22
tp226
a(I25
I10
tp227
a(I13
I23
tp228
a(I28
I17
tp229
a(I24
I49
tp230
a(I3
I1
tp231
a(I27
I12
tp232
a(I25
I44
tp233
a(I30
I11
tp234
a(I19
I34
tp235
a(I26
I43
tp236
a(I5
I27
tp237
a(I20
I37
tp238
a(I6
I16
tp239
a(I29
I13
tp240
a(I19
I8
tp241
a(I17
I8
tp242
a(I7
I21
tp243
a(I20
I3
tp244
a(I47
I21
tp245
a(I21
I2
tp246
a(I25
I11
tp247
a(I18
I41
tp248
a(I23
I12
tp249
a(I10
I3
tp250
a(I15
I26
tp251
a(I30
I18
tp252
a(I14
I5
tp253
a(I36
I18
tp254
a(I1
I16
tp255
a(I37
I19
tp256
a(I2
I23
tp257
a(I26
I8
tp258
a(I48
I21
tp259
a(I3
I6
tp260
a(I27
I5
tp261
a(I1
I10
tp262
a(I4
I1
tp263
a(I19
I43
tp264
a(I29
I6
tp265
a(I20
I44
tp266
a(I16
I4
tp267
a(I6
I11
tp268
a(I17
I1
tp269
a(I7
I18
tp270
a(I22
I46
tp271
a(I46
I27
tp272
a(I20
I10
tp273
a(I18
I6
tp274
a(I23
I47
tp275
a(I47
I18
tp276
a(I21
I11
tp277
a(I43
I18
tp278
a(I44
I21
tp279
a(I18
I32
tp280
a(I45
I24
tp281
a(I11
I3
tp282
a(I9
I23
tp283
a(I12
I4
tp284
a(I10
I20
tp285
a(I15
I9
tp286
a(I11
I25
tp287
a(I28
I14
tp288
a(I38
I19
tp289
a(I3
I15
tp290
a(I1
I3
tp291
a(I4
I8
tp292
a(I19
I48
tp293
a(I2
I8
tp294
a(I5
I13
tp295
a(I20
I43
tp296
a(I3
I21
tp297
a(I27
I48
tp298
a(I6
I2
tp299
a(I21
I42
tp300
a(I4
I22
tp301
a(I18
I1
tp302
a(I47
I27
tp303
a(I29
I15
tp304
a(I17
I28
tp305
a(I7
I28
tp306
a(I23
I2
tp307
a(I8
I29
tp308
a(I9
I24
tp309
a(I14
I23
tp310
a(I12
I3
tp311
a(I13
I2
tp312
a(I11
I30
tp313
a(I12
I25
tp314
a(I1
I4
tp315
a(I25
I7
tp316
a(I39
I19
tp317
a(I13
I28
tp318
a(I24
I44
tp319
a(I48
I25
tp320
a(I27
I9
tp321
a(I25
I41
tp322
a(I30
I6
tp323
a(I4
I29
tp324
a(I26
I46
tp325
a(I7
I26
tp326
a(I5
I16
tp327
a(I27
I47
tp328
a(I16
I8
tp329
a(I40
I21
tp330
a(I19
I5
tp331
a(I7
I30
tp332
a(I20
I6
tp333
a(I42
I23
tp334
a(I21
I7
tp335
a(I8
I4
tp336
a(I18
I44
tp337
a(I14
I30
tp338
a(I10
I6
tp339
a(I11
I23
tp340
a(I35
I18
tp341
a(I24
I13
tp342
a(I30
I4
tp343
a(I36
I21
tp344
a(I25
I8
tp345
a(I15
I5
tp346
a(I29
I4
tp347
a(I26
I15
tp348
a(I28
I12
tp349
a(I27
I14
tp350
a(I49
I29
tp351
a(I30
I9
tp352
a(I19
I36
tp353
a(I20
I39
tp354
a(I21
I38
tp355
a(I19
I10
tp356
a(I41
I25
tp357
a(I46
I22
tp358
a(I47
I23
tp359
a(I44
I24
tp360
a(I18
I39
tp361
a(I23
I14
tp362
a(I10
I1
tp363
a(I18
I40
tp364
a(I8
I17
tp365
a(I7
I27
tp366
a(I28
I13
tp367
a(I1
I22
tp368
a(I22
I45
tp369
a(I2
I21
tp370
a(I48
I23
tp371
a(I3
I8
tp372
a(I27
I7
tp373
a(I1
I8
tp374
a(I49
I22
tp375
a(I19
I45
tp376
a(I26
I48
tp377
a(I5
I2
tp378
a(I20
I46
tp379
a(I16
I6
tp380
a(I21
I47
tp381
a(I17
I7
tp382
a(I7
I12
tp383
a(I22
I44
tp384
a(I46
I25
tp385
a(I18
I4
tp386
a(I42
I25
tp387
a(I23
I41
tp388
a(I47
I28
tp389
a(I43
I20
tp390
a(I44
I23
tp391
a(I18
I30
tp392
a(I28
I7
tp393
a(I45
I22
tp394
a(I8
I24
tp395
a(I11
I5
tp396
a(I12
I6
tp397
a(I10
I18
tp398
a(I13
I7
tp399
a(I11
I27
tp400
a(I29
I7
tp401
a(I24
I1
tp402
a(I12
I28
tp403
a(I39
I20
tp404
a(I4
I10
tp405
a(I2
I6
tp406
a(I24
I39
tp407
a(I5
I11
tp408
a(I3
I23
tp409
a(I21
I40
tp410
a(I4
I16
tp411
a(I22
I39
tp412
a(I5
I21
tp413
a(I23
I48
tp414
a(I23
I38
tp415
a(I6
I26
tp416
a(I34
I20
tp417
a(I9
I30
tp418
a(I10
I29
tp419
a(I24
I8
tp420
a(I12
I27
tp421
a(I14
I28
tp422
a(I13
I26
tp423
a(I2
I1
tp424
a(I24
I46
tp425
a(I48
I27
tp426
a(I27
I11
tp427
a(I25
I47
tp428
a(I49
I26
tp429
a(I21
I49
tp430
a(I19
I33
tp431
a(I7
I29
tp432
a(I26
I44
tp433
a(I7
I2
tp434
a(I5
I30
tp435
a(I29
I49
tp436
a(I40
I23
tp437
a(I19
I7
tp438
a(I41
I22
tp439
a(I16
I27
tp440
a(I42
I21
tp441
a(I21
I5
tp442
a(I43
I24
tp443
a(I22
I10
tp444
a(I18
I42
tp445
a(I28
I5
tp446
a(I10
I4
tp447
a(I15
I25
tp448
a(I35
I20
tp449
a(I14
I6
tp450
a(I1
I19
tp451
a(I25
I14
tp452
a(I15
I7
tp453
a(I37
I22
tp454
a(I26
I13
tp455
a(I48
I18
tp456
a(I29
I16
tp457
a(I3
I5
tp458
a(I25
I48
tp459
a(I49
I19
tp460
a(I30
I15
tp461
a(I29
I8
tp462
a(I19
I38
tp463
a(I22
I49
tp464
a(I20
I33
tp465
a(I16
I1
tp466
a(I6
I20
tp467
a(I21
I36
tp468
a(I7
I17
tp469
a(I22
I43
tp470
a(I46
I20
tp471
a(I18
I11
tp472
a(I8
I13
tp473
a(I22
I13
tp474
a(I44
I26
tp475
a(I18
I37
tp476
a(I45
I27
tp477
a(I8
I19
tp478
a(I9
I18
tp479
a(I1
I20
tp480
a(I9
I1
tp481
a(I2
I19
tp482
a(I3
I10
tp483
a(I1
I14
tp484
a(I49
I20
tp485
a(I4
I13
tp486
a(I19
I47
tp487
a(I2
I13
tp488
a(I20
I40
tp489
a(I3
I16
tp490
a(I6
I15
tp491
a(I21
I45
tp492
a(I28
I46
tp493
a(I17
I5
tp494
a(I7
I14
tp495
a(I18
I2
tp496
a(I23
I43
tp497
a(I43
I22
tp498
a(I22
I4
tp499
a(I23
I1
tp500
a(I45
I20
tp501
a(I8
I26
tp502
a(I9
I27
tp503
a(I28
I11
tp504
a(I13
I5
tp505
a(I11
I29
tp506
a(I38
I23
tp507
a(I12
I30
tp508
a(I1
I7
tp509
a(I39
I22
tp510
a(I2
I4
tp511
a(I24
I41
tp512
a(I5
I9
tp513
a(I30
I3
tp514
a(I4
I18
tp515
a(I22
I37
tp516
a(I5
I19
tp517
a(I40
I18
tp518
a(I41
I19
tp519
a(I34
I18
tp520
a(I8
I1
tp521
a(I30
I17
tp522
a(I18
I49
tp523
a(I14
I27
tp524
a(I10
I27
tp525
a(I11
I18
tp526
a(I24
I10
tp527
a(I12
I21
tp528
a(I1
I24
tp529
a(I18
I46
tp530
a(I13
I24
tp531
a(I28
I16
tp532
a(I24
I48
tp533
a(I48
I29
tp534
a(I3
I30
tp535
a(I27
I13
tp536
a(I25
I45
tp537
a(I49
I24
tp538
a(I30
I10
tp539
a(I19
I35
tp540
a(I5
I28
tp541
a(I20
I36
tp542
a(I6
I19
tp543
a(I19
I9
tp544
a(I17
I9
tp545
a(I41
I20
tp546
a(I46
I19
tp547
a(I20
I2
tp548
a(I42
I19
tp549
a(I21
I3
tp550
a(I43
I26
tp551
a(I9
I5
tp552
a(I23
I13
tp553
a(I10
I2
tp554
a(I15
I27
tp555
a(I14
I4
tp556
a(I28
I9
tp557
a(I1
I17
tp558
a(I25
I12
tp559
a(I15
I1
tp560
a(I37
I20
tp561
a(I2
I22
tp562
a(I26
I11
tp563
a(I48
I20
tp564
a(I3
I7
tp565
a(I1
I11
tp566
a(I30
I13
tp567
a(I19
I40
tp568
a(I14
I2
tp569
a(I20
I35
tp570
a(I16
I3
tp571
a(I6
I10
tp572
a(I21
I34
tp573
a(I29
I12
tp574
a(I17
I2
tp575
a(I7
I19
tp576
a(I22
I41
tp577
a(I46
I26
tp578
a(I20
I9
tp579
a(I18
I9
tp580
a(I23
I44
tp581
a(I47
I19
tp582
a(I21
I12
tp583
a(I43
I19
tp584
a(I8
I15
tp585
a(I22
I3
tp586
a(I44
I20
tp587
a(I18
I35
tp588
a(I23
I10
tp589
a(I45
I25
tp590
a(I9
I16
tp591
a(I10
I23
tp592
a(I2
I17
tp593
a(I38
I18
tp594
a(I3
I12
tp595
a(I1
I12
tp596
a(I9
I29
tp597
a(I4
I15
tp598
a(I19
I49
tp599
a(I2
I11
tp600
a(I5
I14
tp601
a(I20
I42
tp602
a(I3
I18
tp603
a(I27
I49
tp604
a(I6
I13
tp605
a(I21
I43
tp606
a(I4
I21
tp607
a(I29
I47
tp608
a(I47
I24
tp609
a(I17
I29
tp610
a(I32
I19
tp611
a(I44
I19
tp612
a(I33
I18
tp613
a(I23
I3
tp614
a(I45
I18
tp615
a(I8
I28
tp616
a(I9
I25
tp617
a(I12
I2
tp618
a(I10
I30
tp619
a(I13
I3
tp620
a(I28
I15
tp621
a(I38
I21
tp622
a(I12
I24
tp623
a(I27
I16
tp624
a(I1
I5
tp625
a(I13
I29
tp626
a(I26
I7
tp627
a(I24
I43
tp628
a(I48
I24
tp629
a(I20
I49
tp630
a(I16
I30
tp631
a(I25
I42
tp632
a(I28
I6
tp633
a(I4
I28
tp634
a(I28
I49
tp635
a(I7
I1
tp636
a(I7
I25
tp637
a(I5
I17
tp638
a(I27
I44
tp639
a(I40
I20
tp640
a(I29
I14
tp641
a(I19
I2
tp642
a(I20
I5
tp643
a(I42
I22
tp644
a(I8
I3
tp645
a(I18
I47
tp646
a(I14
I25
tp647
a(I10
I25
tp648
a(I15
I28
tp649
a(I35
I19
tp650
a(I24
I12
tp651
a(I12
I23
tp652
a(I36
I20
tp653
a(I25
I9
tp654
a(I13
I22
tp655
a(I26
I14
tp656
a(I27
I15
tp657
a(I49
I30
tp658
a(I30
I8
tp659
a(I19
I37
tp660
a(I20
I38
tp661
a(I6
I17
tp662
a(I21
I39
tp663
a(I19
I11
tp664
a(I7
I20
tp665
a(I20
I12
tp666
a(I47
I20
tp667
a(I21
I1
tp668
a(I18
I38
tp669
a(I8
I16
tp670
a(I30
I5
tp671
a(I36
I19
tp672
a(I1
I23
tp673
a(I15
I3
tp674
a(I29
I3
tp675
a(I37
I18
tp676
a(I2
I20
tp677
a(I26
I9
tp678
a(I48
I22
tp679
a(I3
I9
tp680
a(I1
I9
tp681
a(I49
I23
tp682
a(I4
I2
tp683
a(I19
I42
tp684
a(I2
I14
tp685
a(I5
I3
tp686
a(I20
I45
tp687
a(I16
I5
tp688
a(I7
I13
tp689
a(I22
I47
tp690
a(I46
I24
tp691
a(I18
I7
tp692
a(I42
I24
tp693
a(I23
I46
tp694
a(I47
I29
tp695
a(I43
I21
tp696
a(I22
I1
tp697
a(I44
I22
tp698
a(I18
I33
tp699
a(I45
I23
tp700
a(I9
I4
tp701
a(I11
I2
tp702
a(I12
I5
tp703
a(I40
I24
tp704
a(I15
I8
tp705
a(I13
I8
tp706
a(I11
I24
tp707
a(I26
I16
tp708
a(I1
I2
tp709
a(I39
I21
tp710
a(I4
I9
tp711
a(I2
I9
tp712
a(I5
I12
tp713
a(I3
I20
tp714
a(I6
I3
tp715
a(I21
I41
tp716
a(I22
I38
tp717
a(I5
I22
tp718
a(I23
I39
tp719
a(I47
I26
tp720
a(I8
I30
tp721
a(I10
I28
tp722
a(I6
I29
tp723
a(I13
I1
tp724
a(I12
I26
tp725
a(I30
I49
tp726
a(I39
I18
tp727
a(I13
I27
tp728
a(I24
I45
tp729
a(I48
I26
tp730
a(I3
I29
tp731
a(I27
I8
tp732
a(I49
I27
tp733
a(I30
I7
tp734
a(I4
I30
tp735
atp736
Rp737
.